; Function Attrs: nounwind uwtable
define dso_local void @pack32(i32 noundef %0, ptr noundef %1) #0 {
  %3 = tail call noundef i32 @llvm.bswap.i32(i32 %0)
  %4 = getelementptr inbounds nuw i8, ptr %1, i64 16
  %5 = load i32, ptr %4, align 8
  %6 = getelementptr inbounds nuw i8, ptr %1, i64 20
  %7 = load i32, ptr %6, align 4
  %8 = sub i32 %5, %7
  %9 = icmp ult i32 %8, 4
  br i1 %9, label %10, label %try_grow_buf_remaining.exit

10:                                               ; preds = %2
  %11 = add i32 %5, 16384
  %12 = zext i32 %11 to i64
  %13 = getelementptr inbounds nuw i8, ptr %1, i64 24
  %14 = load i8, ptr %13, align 8, !range !8, !noundef !9
  %15 = trunc nuw i8 %14 to i1
  br i1 %15, label %try_grow_buf_remaining.exit.thread, label %16

16:                                               ; preds = %10
  %17 = getelementptr inbounds nuw i8, ptr %1, i64 25
  %18 = load i8, ptr %17, align 1, !range !8, !noundef !9
  %19 = trunc nuw i8 %18 to i1
  br i1 %19, label %try_grow_buf_remaining.exit.thread, label %20

20:                                               ; preds = %16
  %21 = icmp ugt i32 %11, -65536
  br i1 %21, label %22, label %24

22:                                               ; preds = %20
  %23 = tail call i32 (ptr, ...) @error(ptr noundef nonnull @.str.8, ptr noundef nonnull @__func__.try_grow_buf, i64 noundef %12, i32 noundef -65536) #14
  br label %try_grow_buf_remaining.exit.thread

24:                                               ; preds = %20
  %25 = getelementptr inbounds nuw i8, ptr %1, i64 8
  %26 = tail call ptr @slurm_xrecalloc(ptr noundef nonnull %25, i64 noundef 1, i64 noundef %12, i1 noundef zeroext true, i1 noundef zeroext true, ptr noundef nonnull @.str.1, i32 noundef 238, ptr noundef nonnull @__func__.try_grow_buf) #14
  %.not.i.i = icmp eq ptr %26, null
  br i1 %.not.i.i, label %try_grow_buf_remaining.exit.thread, label %27

27:                                               ; preds = %24
  store i32 %11, ptr %4, align 8
  %.pre = load i32, ptr %6, align 4
  br label %try_grow_buf_remaining.exit

try_grow_buf_remaining.exit:                      ; preds = %27, %2
  %28 = phi i32 [ %.pre, %27 ], [ %7, %2 ]
  %29 = getelementptr inbounds nuw i8, ptr %1, i64 8
  %30 = load ptr, ptr %29, align 8
  %31 = zext i32 %28 to i64
  %32 = getelementptr inbounds nuw i8, ptr %30, i64 %31
  store i32 %3, ptr %32, align 1
  %33 = load i32, ptr %6, align 4
  %34 = add i32 %33, 4
  store i32 %34, ptr %6, align 4
  br label %try_grow_buf_remaining.exit.thread

try_grow_buf_remaining.exit.thread:               ; preds = %24, %10, %16, %22, %try_grow_buf_remaining.exit
  ret void
}